
main.o:     file format elf32-avr


Disassembly of section .text.cmd_isp_io.part.0:

00000000 <cmd_isp_io.part.0>:
   0:	0f 93       	push	r16
   2:	1f 93       	push	r17
   4:	cf 93       	push	r28
   6:	df 93       	push	r29
   8:	c0 e0       	ldi	r28, 0x00	; 0
   a:	d0 e0       	ldi	r29, 0x00	; 0
   c:	8e 01       	movw	r16, r28
   e:	f8 01       	movw	r30, r16
  10:	81 91       	ld	r24, Z+
  12:	8f 01       	movw	r16, r30
  14:	0e 94 00 00 	call	0	; 0x0 <cmd_isp_io.part.0>
  18:	f0 e0       	ldi	r31, 0x00	; 0
  1a:	00 30       	cpi	r16, 0x00	; 0
  1c:	1f 07       	cpc	r17, r31
  1e:	01 f4       	brne	.+0      	; 0x20 <cmd_isp_io.part.0+0x20>
  20:	00 e0       	ldi	r16, 0x00	; 0
  22:	10 e0       	ldi	r17, 0x00	; 0
  24:	00 c0       	rjmp	.+0      	; 0x26 <cmd_isp_io.part.0+0x26>
  26:	85 b7       	in	r24, 0x35	; 53
  28:	8f 74       	andi	r24, 0x4F	; 79
  2a:	85 bf       	out	0x35, r24	; 53
  2c:	85 b7       	in	r24, 0x35	; 53
  2e:	80 64       	ori	r24, 0x40	; 64
  30:	85 bf       	out	0x35, r24	; 53
  32:	88 95       	sleep
  34:	80 e0       	ldi	r24, 0x00	; 0
  36:	90 e0       	ldi	r25, 0x00	; 0
  38:	0e 94 00 00 	call	0	; 0x0 <cmd_isp_io.part.0>
  3c:	88 23       	and	r24, r24
  3e:	01 f0       	breq	.+0      	; 0x40 <cmd_isp_io.part.0+0x40>
  40:	80 91 00 00 	lds	r24, 0x0000	; 0x800000 <__SREG__+0x7fffc1>
  44:	f8 01       	movw	r30, r16
  46:	81 93       	st	Z+, r24
  48:	8f 01       	movw	r16, r30
  4a:	f0 e0       	ldi	r31, 0x00	; 0
  4c:	00 30       	cpi	r16, 0x00	; 0
  4e:	1f 07       	cpc	r17, r31
  50:	01 f4       	brne	.+0      	; 0x52 <cmd_isp_io.part.0+0x52>
  52:	80 91 00 00 	lds	r24, 0x0000	; 0x800000 <__SREG__+0x7fffc1>
  56:	0e 94 00 00 	call	0	; 0x0 <cmd_isp_io.part.0>
  5a:	80 91 00 00 	lds	r24, 0x0000	; 0x800000 <__SREG__+0x7fffc1>
  5e:	0e 94 00 00 	call	0	; 0x0 <cmd_isp_io.part.0>
  62:	80 91 00 00 	lds	r24, 0x0000	; 0x800000 <__SREG__+0x7fffc1>
  66:	88 23       	and	r24, r24
  68:	01 f0       	breq	.+0      	; 0x6a <cmd_isp_io.part.0+0x6a>
  6a:	0e ef       	ldi	r16, 0xFE	; 254
  6c:	1f ef       	ldi	r17, 0xFF	; 255
  6e:	00 50       	subi	r16, 0x00	; 0
  70:	10 40       	sbci	r17, 0x00	; 0
  72:	89 91       	ld	r24, Y+
  74:	0e 94 00 00 	call	0	; 0x0 <cmd_isp_io.part.0>
  78:	20 91 00 00 	lds	r18, 0x0000	; 0x800000 <__SREG__+0x7fffc1>
  7c:	c8 01       	movw	r24, r16
  7e:	8c 0f       	add	r24, r28
  80:	9d 1f       	adc	r25, r29
  82:	28 17       	cp	r18, r24
  84:	19 06       	cpc	r1, r25
  86:	01 f0       	breq	.+0      	; 0x88 <cmd_isp_io.part.0+0x88>
  88:	04 f4       	brge	.+0      	; 0x8a <cmd_isp_io.part.0+0x8a>
  8a:	df 91       	pop	r29
  8c:	cf 91       	pop	r28
  8e:	1f 91       	pop	r17
  90:	0f 91       	pop	r16
  92:	08 95       	ret

Disassembly of section .text.usart_getc_sync:

00000000 <usart_getc_sync>:
   0:	00 c0       	rjmp	.+0      	; 0x2 <usart_getc_sync+0x2>
   2:	85 b7       	in	r24, 0x35	; 53
   4:	8f 74       	andi	r24, 0x4F	; 79
   6:	85 bf       	out	0x35, r24	; 53
   8:	85 b7       	in	r24, 0x35	; 53
   a:	80 64       	ori	r24, 0x40	; 64
   c:	85 bf       	out	0x35, r24	; 53
   e:	88 95       	sleep
  10:	80 e0       	ldi	r24, 0x00	; 0
  12:	90 e0       	ldi	r25, 0x00	; 0
  14:	0e 94 00 00 	call	0	; 0x0 <usart_getc_sync>
  18:	88 23       	and	r24, r24
  1a:	01 f0       	breq	.+0      	; 0x1c <usart_getc_sync+0x1c>
  1c:	80 91 00 00 	lds	r24, 0x0000	; 0x800000 <__SREG__+0x7fffc1>
  20:	08 95       	ret

Disassembly of section .text.spi_getc_sync:

00000000 <spi_getc_sync>:
   0:	00 c0       	rjmp	.+0      	; 0x2 <spi_getc_sync+0x2>
   2:	85 b7       	in	r24, 0x35	; 53
   4:	8f 74       	andi	r24, 0x4F	; 79
   6:	85 bf       	out	0x35, r24	; 53
   8:	85 b7       	in	r24, 0x35	; 53
   a:	80 64       	ori	r24, 0x40	; 64
   c:	85 bf       	out	0x35, r24	; 53
   e:	88 95       	sleep
  10:	80 e0       	ldi	r24, 0x00	; 0
  12:	90 e0       	ldi	r25, 0x00	; 0
  14:	0e 94 00 00 	call	0	; 0x0 <spi_getc_sync>
  18:	88 23       	and	r24, r24
  1a:	01 f0       	breq	.+0      	; 0x1c <spi_getc_sync+0x1c>
  1c:	80 91 00 00 	lds	r24, 0x0000	; 0x800000 <__SREG__+0x7fffc1>
  20:	08 95       	ret

Disassembly of section .text.send_packet:

00000000 <send_packet>:
   0:	0f 93       	push	r16
   2:	1f 93       	push	r17
   4:	cf 93       	push	r28
   6:	df 93       	push	r29
   8:	80 91 00 00 	lds	r24, 0x0000	; 0x800000 <__SREG__+0x7fffc1>
   c:	0e 94 00 00 	call	0	; 0x0 <send_packet>
  10:	80 91 00 00 	lds	r24, 0x0000	; 0x800000 <__SREG__+0x7fffc1>
  14:	0e 94 00 00 	call	0	; 0x0 <send_packet>
  18:	80 91 00 00 	lds	r24, 0x0000	; 0x800000 <__SREG__+0x7fffc1>
  1c:	88 23       	and	r24, r24
  1e:	01 f0       	breq	.+0      	; 0x20 <send_packet+0x20>
  20:	c0 e0       	ldi	r28, 0x00	; 0
  22:	d0 e0       	ldi	r29, 0x00	; 0
  24:	0e ef       	ldi	r16, 0xFE	; 254
  26:	1f ef       	ldi	r17, 0xFF	; 255
  28:	00 50       	subi	r16, 0x00	; 0
  2a:	10 40       	sbci	r17, 0x00	; 0
  2c:	89 91       	ld	r24, Y+
  2e:	0e 94 00 00 	call	0	; 0x0 <send_packet>
  32:	20 91 00 00 	lds	r18, 0x0000	; 0x800000 <__SREG__+0x7fffc1>
  36:	c8 01       	movw	r24, r16
  38:	8c 0f       	add	r24, r28
  3a:	9d 1f       	adc	r25, r29
  3c:	28 17       	cp	r18, r24
  3e:	19 06       	cpc	r1, r25
  40:	01 f0       	breq	.+0      	; 0x42 <send_packet+0x42>
  42:	04 f4       	brge	.+0      	; 0x44 <send_packet+0x44>
  44:	df 91       	pop	r29
  46:	cf 91       	pop	r28
  48:	1f 91       	pop	r17
  4a:	0f 91       	pop	r16
  4c:	08 95       	ret

Disassembly of section .text.cmd_seta:

00000000 <cmd_seta>:
   0:	80 91 00 00 	lds	r24, 0x0000	; 0x800000 <__SREG__+0x7fffc1>
   4:	81 30       	cpi	r24, 0x01	; 1
   6:	01 f0       	breq	.+0      	; 0x8 <cmd_seta+0x8>
   8:	08 95       	ret
   a:	80 91 00 00 	lds	r24, 0x0000	; 0x800000 <__SREG__+0x7fffc1>
   e:	8b bb       	out	0x1b, r24	; 27
  10:	08 95       	ret

Disassembly of section .text.cmd_isp_reset:

00000000 <cmd_isp_reset>:
   0:	80 91 00 00 	lds	r24, 0x0000	; 0x800000 <__SREG__+0x7fffc1>
   4:	81 30       	cpi	r24, 0x01	; 1
   6:	01 f0       	breq	.+0      	; 0x8 <cmd_isp_reset+0x8>
   8:	08 95       	ret
   a:	80 91 00 00 	lds	r24, 0x0000	; 0x800000 <__SREG__+0x7fffc1>
   e:	88 23       	and	r24, r24
  10:	01 f0       	breq	.+0      	; 0x12 <cmd_isp_reset+0x12>
  12:	c1 9a       	sbi	0x18, 1	; 24
  14:	08 95       	ret
  16:	c1 98       	cbi	0x18, 1	; 24
  18:	08 95       	ret

Disassembly of section .text.cmd_isp_io:

00000000 <cmd_isp_io>:
   0:	80 91 00 00 	lds	r24, 0x0000	; 0x800000 <__SREG__+0x7fffc1>
   4:	84 30       	cpi	r24, 0x04	; 4
   6:	01 f0       	breq	.+0      	; 0x8 <cmd_isp_io+0x8>
   8:	08 95       	ret
   a:	0c 94 00 00 	jmp	0	; 0x0 <cmd_isp_io>

Disassembly of section .text.__vector_14:

00000000 <__vector_14>:
   0:	1f 92       	push	r1
   2:	0f 92       	push	r0
   4:	0f b6       	in	r0, 0x3f	; 63
   6:	0f 92       	push	r0
   8:	11 24       	eor	r1, r1
   a:	0f 93       	push	r16
   c:	1f 93       	push	r17
   e:	2f 93       	push	r18
  10:	3f 93       	push	r19
  12:	4f 93       	push	r20
  14:	5f 93       	push	r21
  16:	6f 93       	push	r22
  18:	7f 93       	push	r23
  1a:	8f 93       	push	r24
  1c:	9f 93       	push	r25
  1e:	af 93       	push	r26
  20:	bf 93       	push	r27
  22:	cf 93       	push	r28
  24:	df 93       	push	r29
  26:	ef 93       	push	r30
  28:	ff 93       	push	r31
  2a:	80 91 00 00 	lds	r24, 0x0000	; 0x800000 <__SREG__+0x7fffc1>
  2e:	81 11       	cpse	r24, r1
  30:	00 c0       	rjmp	.+0      	; 0x32 <__vector_14+0x32>
  32:	10 92 00 00 	sts	0x0000, r1	; 0x800000 <__SREG__+0x7fffc1>
  36:	37 98       	cbi	0x06, 7	; 6
  38:	ff 91       	pop	r31
  3a:	ef 91       	pop	r30
  3c:	df 91       	pop	r29
  3e:	cf 91       	pop	r28
  40:	bf 91       	pop	r27
  42:	af 91       	pop	r26
  44:	9f 91       	pop	r25
  46:	8f 91       	pop	r24
  48:	7f 91       	pop	r23
  4a:	6f 91       	pop	r22
  4c:	5f 91       	pop	r21
  4e:	4f 91       	pop	r20
  50:	3f 91       	pop	r19
  52:	2f 91       	pop	r18
  54:	1f 91       	pop	r17
  56:	0f 91       	pop	r16
  58:	0f 90       	pop	r0
  5a:	0f be       	out	0x3f, r0	; 63
  5c:	0f 90       	pop	r0
  5e:	1f 90       	pop	r1
  60:	18 95       	reti
  62:	84 e0       	ldi	r24, 0x04	; 4
  64:	80 93 00 00 	sts	0x0000, r24	; 0x800000 <__SREG__+0x7fffc1>
  68:	82 e0       	ldi	r24, 0x02	; 2
  6a:	80 93 00 00 	sts	0x0000, r24	; 0x800000 <__SREG__+0x7fffc1>
  6e:	84 b1       	in	r24, 0x04	; 4
  70:	80 93 00 00 	sts	0x0000, r24	; 0x800000 <__SREG__+0x7fffc1>
  74:	85 b1       	in	r24, 0x05	; 5
  76:	80 93 00 00 	sts	0x0000, r24	; 0x800000 <__SREG__+0x7fffc1>
  7a:	84 e0       	ldi	r24, 0x04	; 4
  7c:	0e 94 00 00 	call	0	; 0x0 <__vector_14>
  80:	80 91 00 00 	lds	r24, 0x0000	; 0x800000 <__SREG__+0x7fffc1>
  84:	0e 94 00 00 	call	0	; 0x0 <__vector_14>
  88:	80 91 00 00 	lds	r24, 0x0000	; 0x800000 <__SREG__+0x7fffc1>
  8c:	88 23       	and	r24, r24
  8e:	01 f0       	breq	.+0      	; 0x90 <__vector_14+0x90>
  90:	c0 e0       	ldi	r28, 0x00	; 0
  92:	d0 e0       	ldi	r29, 0x00	; 0
  94:	0e ef       	ldi	r16, 0xFE	; 254
  96:	1f ef       	ldi	r17, 0xFF	; 255
  98:	00 50       	subi	r16, 0x00	; 0
  9a:	10 40       	sbci	r17, 0x00	; 0
  9c:	89 91       	ld	r24, Y+
  9e:	0e 94 00 00 	call	0	; 0x0 <__vector_14>
  a2:	20 91 00 00 	lds	r18, 0x0000	; 0x800000 <__SREG__+0x7fffc1>
  a6:	c8 01       	movw	r24, r16
  a8:	8c 0f       	add	r24, r28
  aa:	9d 1f       	adc	r25, r29
  ac:	28 17       	cp	r18, r24
  ae:	19 06       	cpc	r1, r25
  b0:	01 f0       	breq	.+0      	; 0xb2 <__vector_14+0xb2>
  b2:	04 f4       	brge	.+0      	; 0xb4 <__vector_14+0xb4>
  b4:	00 c0       	rjmp	.+0      	; 0xb6 <__SREG__+0x77>

Disassembly of section .text.cmd_adc:

00000000 <cmd_adc>:
   0:	80 91 00 00 	lds	r24, 0x0000	; 0x800000 <__SREG__+0x7fffc1>
   4:	81 30       	cpi	r24, 0x01	; 1
   6:	01 f4       	brne	.+0      	; 0x8 <cmd_adc+0x8>
   8:	80 91 00 00 	lds	r24, 0x0000	; 0x800000 <__SREG__+0x7fffc1>
   c:	8f 7d       	andi	r24, 0xDF	; 223
   e:	87 b9       	out	0x07, r24	; 7
  10:	81 e0       	ldi	r24, 0x01	; 1
  12:	80 93 00 00 	sts	0x0000, r24	; 0x800000 <__SREG__+0x7fffc1>
  16:	37 9a       	sbi	0x06, 7	; 6
  18:	08 95       	ret

Disassembly of section .text.handle_packet:

00000000 <handle_packet>:
   0:	80 91 00 00 	lds	r24, 0x0000	; 0x800000 <__SREG__+0x7fffc1>
   4:	83 30       	cpi	r24, 0x03	; 3
   6:	01 f0       	breq	.+0      	; 0x8 <handle_packet+0x8>
   8:	00 f4       	brcc	.+0      	; 0xa <handle_packet+0xa>
   a:	81 30       	cpi	r24, 0x01	; 1
   c:	01 f0       	breq	.+0      	; 0xe <handle_packet+0xe>
   e:	82 30       	cpi	r24, 0x02	; 2
  10:	01 f4       	brne	.+0      	; 0x12 <handle_packet+0x12>
  12:	80 91 00 00 	lds	r24, 0x0000	; 0x800000 <__SREG__+0x7fffc1>
  16:	81 30       	cpi	r24, 0x01	; 1
  18:	01 f0       	breq	.+0      	; 0x1a <handle_packet+0x1a>
  1a:	08 95       	ret
  1c:	84 30       	cpi	r24, 0x04	; 4
  1e:	01 f4       	brne	.+0      	; 0x20 <handle_packet+0x20>
  20:	80 91 00 00 	lds	r24, 0x0000	; 0x800000 <__SREG__+0x7fffc1>
  24:	81 30       	cpi	r24, 0x01	; 1
  26:	01 f0       	breq	.+0      	; 0x28 <handle_packet+0x28>
  28:	81 e0       	ldi	r24, 0x01	; 1
  2a:	80 93 00 00 	sts	0x0000, r24	; 0x800000 <__SREG__+0x7fffc1>
  2e:	37 9a       	sbi	0x06, 7	; 6
  30:	08 95       	ret
  32:	08 95       	ret
  34:	80 91 00 00 	lds	r24, 0x0000	; 0x800000 <__SREG__+0x7fffc1>
  38:	81 30       	cpi	r24, 0x01	; 1
  3a:	01 f4       	brne	.+0      	; 0x3c <handle_packet+0x3c>
  3c:	80 91 00 00 	lds	r24, 0x0000	; 0x800000 <__SREG__+0x7fffc1>
  40:	8b bb       	out	0x1b, r24	; 27
  42:	08 95       	ret
  44:	80 91 00 00 	lds	r24, 0x0000	; 0x800000 <__SREG__+0x7fffc1>
  48:	84 30       	cpi	r24, 0x04	; 4
  4a:	01 f4       	brne	.+0      	; 0x4c <handle_packet+0x4c>
  4c:	0c 94 00 00 	jmp	0	; 0x0 <handle_packet>
  50:	80 91 00 00 	lds	r24, 0x0000	; 0x800000 <__SREG__+0x7fffc1>
  54:	88 23       	and	r24, r24
  56:	01 f0       	breq	.+0      	; 0x58 <handle_packet+0x58>
  58:	c1 9a       	sbi	0x18, 1	; 24
  5a:	08 95       	ret
  5c:	80 91 00 00 	lds	r24, 0x0000	; 0x800000 <__SREG__+0x7fffc1>
  60:	8f 7d       	andi	r24, 0xDF	; 223
  62:	87 b9       	out	0x07, r24	; 7
  64:	00 c0       	rjmp	.+0      	; 0x66 <handle_packet+0x66>
  66:	c1 98       	cbi	0x18, 1	; 24
  68:	08 95       	ret
  6a:	08 95       	ret

Disassembly of section .text.read_packet:

00000000 <read_packet>:
   0:	0f 93       	push	r16
   2:	1f 93       	push	r17
   4:	cf 93       	push	r28
   6:	df 93       	push	r29
   8:	00 c0       	rjmp	.+0      	; 0xa <read_packet+0xa>
   a:	85 b7       	in	r24, 0x35	; 53
   c:	8f 74       	andi	r24, 0x4F	; 79
   e:	85 bf       	out	0x35, r24	; 53
  10:	85 b7       	in	r24, 0x35	; 53
  12:	80 64       	ori	r24, 0x40	; 64
  14:	85 bf       	out	0x35, r24	; 53
  16:	88 95       	sleep
  18:	80 e0       	ldi	r24, 0x00	; 0
  1a:	90 e0       	ldi	r25, 0x00	; 0
  1c:	0e 94 00 00 	call	0	; 0x0 <read_packet>
  20:	88 23       	and	r24, r24
  22:	01 f0       	breq	.+0      	; 0x24 <read_packet+0x24>
  24:	80 91 00 00 	lds	r24, 0x0000	; 0x800000 <__SREG__+0x7fffc1>
  28:	80 93 00 00 	sts	0x0000, r24	; 0x800000 <__SREG__+0x7fffc1>
  2c:	00 c0       	rjmp	.+0      	; 0x2e <read_packet+0x2e>
  2e:	85 b7       	in	r24, 0x35	; 53
  30:	8f 74       	andi	r24, 0x4F	; 79
  32:	85 bf       	out	0x35, r24	; 53
  34:	85 b7       	in	r24, 0x35	; 53
  36:	80 64       	ori	r24, 0x40	; 64
  38:	85 bf       	out	0x35, r24	; 53
  3a:	88 95       	sleep
  3c:	80 e0       	ldi	r24, 0x00	; 0
  3e:	90 e0       	ldi	r25, 0x00	; 0
  40:	0e 94 00 00 	call	0	; 0x0 <read_packet>
  44:	88 23       	and	r24, r24
  46:	01 f0       	breq	.+0      	; 0x48 <read_packet+0x48>
  48:	80 91 00 00 	lds	r24, 0x0000	; 0x800000 <__SREG__+0x7fffc1>
  4c:	80 93 00 00 	sts	0x0000, r24	; 0x800000 <__SREG__+0x7fffc1>
  50:	87 30       	cpi	r24, 0x07	; 7
  52:	00 f4       	brcc	.+0      	; 0x54 <read_packet+0x54>
  54:	88 23       	and	r24, r24
  56:	01 f0       	breq	.+0      	; 0x58 <read_packet+0x58>
  58:	c0 e0       	ldi	r28, 0x00	; 0
  5a:	d0 e0       	ldi	r29, 0x00	; 0
  5c:	0e ef       	ldi	r16, 0xFE	; 254
  5e:	1f ef       	ldi	r17, 0xFF	; 255
  60:	00 50       	subi	r16, 0x00	; 0
  62:	10 40       	sbci	r17, 0x00	; 0
  64:	00 c0       	rjmp	.+0      	; 0x66 <read_packet+0x66>
  66:	85 b7       	in	r24, 0x35	; 53
  68:	8f 74       	andi	r24, 0x4F	; 79
  6a:	85 bf       	out	0x35, r24	; 53
  6c:	85 b7       	in	r24, 0x35	; 53
  6e:	80 64       	ori	r24, 0x40	; 64
  70:	85 bf       	out	0x35, r24	; 53
  72:	88 95       	sleep
  74:	80 e0       	ldi	r24, 0x00	; 0
  76:	90 e0       	ldi	r25, 0x00	; 0
  78:	0e 94 00 00 	call	0	; 0x0 <read_packet>
  7c:	88 23       	and	r24, r24
  7e:	01 f0       	breq	.+0      	; 0x80 <read_packet+0x80>
  80:	80 91 00 00 	lds	r24, 0x0000	; 0x800000 <__SREG__+0x7fffc1>
  84:	89 93       	st	Y+, r24
  86:	20 91 00 00 	lds	r18, 0x0000	; 0x800000 <__SREG__+0x7fffc1>
  8a:	c8 01       	movw	r24, r16
  8c:	8c 0f       	add	r24, r28
  8e:	9d 1f       	adc	r25, r29
  90:	28 17       	cp	r18, r24
  92:	19 06       	cpc	r1, r25
  94:	01 f0       	breq	.+0      	; 0x96 <read_packet+0x96>
  96:	04 f4       	brge	.+0      	; 0x98 <read_packet+0x98>
  98:	df 91       	pop	r29
  9a:	cf 91       	pop	r28
  9c:	1f 91       	pop	r17
  9e:	0f 91       	pop	r16
  a0:	0c 94 00 00 	jmp	0	; 0x0 <read_packet>
  a4:	d0 e0       	ldi	r29, 0x00	; 0
  a6:	c0 e0       	ldi	r28, 0x00	; 0
  a8:	00 c0       	rjmp	.+0      	; 0xaa <read_packet+0xaa>
  aa:	85 b7       	in	r24, 0x35	; 53
  ac:	8f 74       	andi	r24, 0x4F	; 79
  ae:	85 bf       	out	0x35, r24	; 53
  b0:	85 b7       	in	r24, 0x35	; 53
  b2:	80 64       	ori	r24, 0x40	; 64
  b4:	85 bf       	out	0x35, r24	; 53
  b6:	88 95       	sleep
  b8:	80 e0       	ldi	r24, 0x00	; 0
  ba:	90 e0       	ldi	r25, 0x00	; 0
  bc:	0e 94 00 00 	call	0	; 0x0 <read_packet>
  c0:	88 23       	and	r24, r24
  c2:	01 f0       	breq	.+0      	; 0xc4 <read_packet+0xc4>
  c4:	21 96       	adiw	r28, 0x01	; 1
  c6:	80 91 00 00 	lds	r24, 0x0000	; 0x800000 <__SREG__+0x7fffc1>
  ca:	8c 17       	cp	r24, r28
  cc:	1d 06       	cpc	r1, r29
  ce:	01 f0       	breq	.+0      	; 0xd0 <read_packet+0xd0>
  d0:	04 f4       	brge	.+0      	; 0xd2 <read_packet+0xd2>
  d2:	df 91       	pop	r29
  d4:	cf 91       	pop	r28
  d6:	1f 91       	pop	r17
  d8:	0f 91       	pop	r16
  da:	08 95       	ret

Disassembly of section .text.startup.main:

00000000 <main>:
   0:	82 eb       	ldi	r24, 0xB2	; 178
   2:	87 bb       	out	0x17, r24	; 23
   4:	83 ed       	ldi	r24, 0xD3	; 211
   6:	8d b9       	out	0x0d, r24	; 13
   8:	0e 94 00 00 	call	0	; 0x0 <main>
   c:	1b b8       	out	0x0b, r1	; 11
   e:	88 ef       	ldi	r24, 0xF8	; 248
  10:	8a b9       	out	0x0a, r24	; 10
  12:	86 e8       	ldi	r24, 0x86	; 134
  14:	80 bd       	out	0x20, r24	; 32
  16:	10 bc       	out	0x20, r1	; 32
  18:	83 e3       	ldi	r24, 0x33	; 51
  1a:	89 b9       	out	0x09, r24	; 9
  1c:	1a ba       	out	0x1a, r1	; 26
  1e:	8f ef       	ldi	r24, 0xFF	; 255
  20:	84 bb       	out	0x14, r24	; 20
  22:	85 bb       	out	0x15, r24	; 21
  24:	80 e2       	ldi	r24, 0x20	; 32
  26:	87 b9       	out	0x07, r24	; 7
  28:	8e e0       	ldi	r24, 0x0E	; 14
  2a:	86 b9       	out	0x06, r24	; 6
  2c:	10 be       	out	0x30, r1	; 48
  2e:	0e 94 00 00 	call	0	; 0x0 <main>
  32:	00 c0       	rjmp	.+0      	; 0x34 <adc_en+0x2a>
